target datalayout = "e-m:e-p270:32:32-p271:32:32-p272:64:64-i64:64-i128:128-f80:128-n8:16:32:64-S128"
target triple = "x86_64-pc-linux-gnu"

%union.EX_STYPE = type { ptr }
%struct.Exinput_s = type { ptr, i32, ptr, ptr, i32, i32, i32, i32, ptr, ptr }
%struct.Exid_s = type { %struct._dtlink_s, i64, i64, i64, i64, i64, ptr, ptr, i64, [32 x i8] }
%struct._dtlink_s = type { ptr, %union.anon.0 }
%union.anon.0 = type { ptr }
%struct.Expr_s = type { ptr, ptr, [10 x ptr], ptr, ptr, ptr, %struct._dtdisc_s, ptr, ptr, ptr, %struct.agxbuf, %union.EX_STYPE, %struct.Exid_s, [512 x i8], ptr, i32, i32, i32, i32, i64, i32, i32 }
%struct._dtdisc_s = type { i32, i32, i32, ptr, ptr, ptr }
%struct.agxbuf = type { %union.anon }
%union.anon = type { %struct.anon }
%struct.anon = type { ptr, i64, i64, [7 x i8], i8 }

; Function Attrs: nounwind uwtable
define internal i32 @lex(ptr noundef %0) #0 {
  %2 = alloca ptr, align 8
  %3 = alloca i32, align 4
  store ptr %0, ptr %2, align 8
  br label %4

4:                                                ; preds = %58, %33, %1
  %5 = load ptr, ptr %2, align 8
  %6 = getelementptr inbounds %struct.Expr_s, ptr %5, i32 0, i32 8
  %7 = load ptr, ptr %6, align 8
  %8 = getelementptr inbounds %struct.Exinput_s, ptr %7, i32 0, i32 6
  %9 = load i32, ptr %8, align 8
  store i32 %9, ptr %3, align 4
  %10 = icmp ne i32 %9, 0
  br i1 %10, label %11, label %16

11:                                               ; preds = %4
  %12 = load ptr, ptr %2, align 8
  %13 = getelementptr inbounds %struct.Expr_s, ptr %12, i32 0, i32 8
  %14 = load ptr, ptr %13, align 8
  %15 = getelementptr inbounds %struct.Exinput_s, ptr %14, i32 0, i32 6
  store i32 0, ptr %15, align 8
  br label %67

16:                                               ; preds = %4
  %17 = load ptr, ptr %2, align 8
  %18 = getelementptr inbounds %struct.Expr_s, ptr %17, i32 0, i32 8
  %19 = load ptr, ptr %18, align 8
  %20 = getelementptr inbounds %struct.Exinput_s, ptr %19, i32 0, i32 9
  %21 = load ptr, ptr %20, align 8
  %22 = icmp ne ptr %21, null
  br i1 %22, label %23, label %39

23:                                               ; preds = %16
  %24 = load ptr, ptr %2, align 8
  %25 = getelementptr inbounds %struct.Expr_s, ptr %24, i32 0, i32 8
  %26 = load ptr, ptr %25, align 8
  %27 = getelementptr inbounds %struct.Exinput_s, ptr %26, i32 0, i32 9
  %28 = load ptr, ptr %27, align 8
  %29 = getelementptr inbounds i8, ptr %28, i32 1
  store ptr %29, ptr %27, align 8
  %30 = load i8, ptr %28, align 1
  %31 = sext i8 %30 to i32
  store i32 %31, ptr %3, align 4
  %32 = icmp ne i32 %31, 0
  br i1 %32, label %38, label %33

33:                                               ; preds = %23
  %34 = load ptr, ptr %2, align 8
  %35 = getelementptr inbounds %struct.Expr_s, ptr %34, i32 0, i32 8
  %36 = load ptr, ptr %35, align 8
  %37 = getelementptr inbounds %struct.Exinput_s, ptr %36, i32 0, i32 9
  store ptr null, ptr %37, align 8
  br label %4

38:                                               ; preds = %23
  br label %66

39:                                               ; preds = %16
  %40 = load ptr, ptr %2, align 8
  %41 = getelementptr inbounds %struct.Expr_s, ptr %40, i32 0, i32 8
  %42 = load ptr, ptr %41, align 8
  %43 = getelementptr inbounds %struct.Exinput_s, ptr %42, i32 0, i32 3
  %44 = load ptr, ptr %43, align 8
  %45 = icmp ne ptr %44, null
  br i1 %45, label %46, label %64

46:                                               ; preds = %39
  %47 = load ptr, ptr %2, align 8
  %48 = getelementptr inbounds %struct.Expr_s, ptr %47, i32 0, i32 8
  %49 = load ptr, ptr %48, align 8
  %50 = getelementptr inbounds %struct.Exinput_s, ptr %49, i32 0, i32 3
  %51 = load ptr, ptr %50, align 8
  %52 = call i32 @getc(ptr noundef %51)
  store i32 %52, ptr %3, align 4
  %53 = icmp eq i32 %52, -1
  br i1 %53, label %54, label %63

54:                                               ; preds = %46
  %55 = load ptr, ptr %2, align 8
  %56 = call i32 @expop(ptr noundef %55)
  %57 = icmp ne i32 %56, 0
  br i1 %57, label %59, label %58

58:                                               ; preds = %54
  br label %4

59:                                               ; preds = %54
  br label %60

60:                                               ; preds = %59
  br label %61

61:                                               ; preds = %60
  br label %62

62:                                               ; preds = %61
  store i32 0, ptr %3, align 4
  br label %63

63:                                               ; preds = %62, %46
  br label %65

64:                                               ; preds = %39
  store i32 0, ptr %3, align 4
  br label %65

65:                                               ; preds = %64, %63
  br label %66

66:                                               ; preds = %65, %38
  br label %67

67:                                               ; preds = %66, %11
  %68 = load i32, ptr %3, align 4
  %69 = icmp eq i32 %68, 10
  br i1 %69, label %70, label %78

70:                                               ; preds = %67
  %71 = load ptr, ptr %2, align 8
  %72 = getelementptr inbounds %struct.Expr_s, ptr %71, i32 0, i32 13
  %73 = getelementptr inbounds [512 x i8], ptr %72, i64 0, i64 0
  %74 = load ptr, ptr %2, align 8
  %75 = getelementptr inbounds %struct.Expr_s, ptr %74, i32 0, i32 14
  store ptr %73, ptr %75, align 8
  %76 = load ptr, ptr %2, align 8
  %77 = getelementptr inbounds %struct.Expr_s, ptr %76, i32 0, i32 18
  store i32 0, ptr %77, align 4
  br label %106

78:                                               ; preds = %67
  %79 = load i32, ptr %3, align 4
  %80 = icmp ne i32 %79, 0
  br i1 %80, label %81, label %105

81:                                               ; preds = %78
  %82 = load ptr, ptr %2, align 8
  %83 = getelementptr inbounds %struct.Expr_s, ptr %82, i32 0, i32 14
  %84 = load ptr, ptr %83, align 8
  %85 = load ptr, ptr %2, align 8
  %86 = getelementptr inbounds %struct.Expr_s, ptr %85, i32 0, i32 13
  %87 = getelementptr inbounds [512 x i8], ptr %86, i64 0, i64 512
  %88 = icmp uge ptr %84, %87
  br i1 %88, label %89, label %97

89:                                               ; preds = %81
  %90 = load ptr, ptr %2, align 8
  %91 = getelementptr inbounds %struct.Expr_s, ptr %90, i32 0, i32 13
  %92 = getelementptr inbounds [512 x i8], ptr %91, i64 0, i64 0
  %93 = load ptr, ptr %2, align 8
  %94 = getelementptr inbounds %struct.Expr_s, ptr %93, i32 0, i32 14
  store ptr %92, ptr %94, align 8
  %95 = load ptr, ptr %2, align 8
  %96 = getelementptr inbounds %struct.Expr_s, ptr %95, i32 0, i32 18
  store i32 1, ptr %96, align 4
  br label %98

97:                                               ; preds = %81
  br label %98

98:                                               ; preds = %97, %89
  %99 = load i32, ptr %3, align 4
  %100 = trunc i32 %99 to i8
  %101 = load ptr, ptr %2, align 8
  %102 = getelementptr inbounds %struct.Expr_s, ptr %101, i32 0, i32 14
  %103 = load ptr, ptr %102, align 8
  %104 = getelementptr inbounds i8, ptr %103, i32 1
  store ptr %104, ptr %102, align 8
  store i8 %100, ptr %103, align 1
  br label %105

105:                                              ; preds = %98, %78
  br label %106

106:                                              ; preds = %105, %70
  br label %107

107:                                              ; preds = %106
  br label %108

108:                                              ; preds = %107
  %109 = load i32, ptr %3, align 4
  ret i32 %109
}