; Function Attrs: nounwind uwtable
define internal fastcc noundef i32 @lex(ptr noundef %0) unnamed_addr #0 {
  %2 = getelementptr inbounds nuw i8, ptr %0, i64 168
  %3 = load ptr, ptr %2, align 8
  %4 = getelementptr inbounds nuw i8, ptr %3, i64 40
  %5 = load i32, ptr %4, align 8
  %.not42 = icmp eq i32 %5, 0
  br i1 %.not42, label %.lr.ph, label %._crit_edge

._crit_edge:                                      ; preds = %.backedge, %1
  %.lcssa41 = phi ptr [ %3, %1 ], [ %16, %.backedge ]
  %.lcssa = phi i32 [ %5, %1 ], [ %18, %.backedge ]
  %6 = getelementptr inbounds nuw i8, ptr %.lcssa41, i64 40
  store i32 0, ptr %6, align 8
  br label %.loopexit

.lr.ph:                                           ; preds = %1, %.backedge
  %7 = phi ptr [ %16, %.backedge ], [ %3, %1 ]
  %8 = getelementptr inbounds nuw i8, ptr %7, i64 56
  %9 = load ptr, ptr %8, align 8
  %.not25 = icmp eq ptr %9, null
  br i1 %.not25, label %19, label %10

10:                                               ; preds = %.lr.ph
  %11 = getelementptr inbounds nuw i8, ptr %9, i64 1
  store ptr %11, ptr %8, align 8
  %12 = load i8, ptr %9, align 1
  %.not28 = icmp eq i8 %12, 0
  br i1 %.not28, label %13, label %.loopexit.split.loop.exit38

13:                                               ; preds = %10
  %14 = load ptr, ptr %2, align 8
  %15 = getelementptr inbounds nuw i8, ptr %14, i64 56
  store ptr null, ptr %15, align 8
  br label %.backedge

.backedge:                                        ; preds = %13, %25
  %16 = load ptr, ptr %2, align 8
  %17 = getelementptr inbounds nuw i8, ptr %16, i64 40
  %18 = load i32, ptr %17, align 8
  %.not = icmp eq i32 %18, 0
  br i1 %.not, label %.lr.ph, label %._crit_edge

19:                                               ; preds = %.lr.ph
  %20 = getelementptr inbounds nuw i8, ptr %7, i64 24
  %21 = load ptr, ptr %20, align 8
  %.not26 = icmp eq ptr %21, null
  br i1 %.not26, label %.thread, label %22

22:                                               ; preds = %19
  %23 = tail call i32 @getc(ptr noundef nonnull %21)
  %24 = icmp eq i32 %23, -1
  br i1 %24, label %25, label %.loopexit

25:                                               ; preds = %22
  %26 = tail call i32 @expop(ptr noundef nonnull %0) #14
  %.not27 = icmp eq i32 %26, 0
  br i1 %.not27, label %.backedge, label %.thread

.loopexit.split.loop.exit38:                      ; preds = %10
  %27 = sext i8 %12 to i32
  br label %.loopexit

.loopexit:                                        ; preds = %22, %.loopexit.split.loop.exit38, %._crit_edge
  %.0 = phi i32 [ %.lcssa, %._crit_edge ], [ %27, %.loopexit.split.loop.exit38 ], [ %23, %22 ]
  switch i32 %.0, label %32 [
    i32 10, label %28
    i32 0, label %.thread
  ]

28:                                               ; preds = %.loopexit
  %29 = getelementptr inbounds nuw i8, ptr %0, i64 336
  %30 = getelementptr inbounds nuw i8, ptr %0, i64 848
  store ptr %29, ptr %30, align 8
  %31 = getelementptr inbounds nuw i8, ptr %0, i64 868
  store i32 0, ptr %31, align 4
  br label %.thread

32:                                               ; preds = %.loopexit
  %33 = getelementptr inbounds nuw i8, ptr %0, i64 848
  %34 = load ptr, ptr %33, align 8
  %.not30 = icmp ult ptr %34, %33
  br i1 %.not30, label %38, label %35

35:                                               ; preds = %32
  %36 = getelementptr inbounds nuw i8, ptr %0, i64 336
  %37 = getelementptr inbounds nuw i8, ptr %0, i64 868
  store i32 1, ptr %37, align 4
  br label %38

38:                                               ; preds = %32, %35
  %39 = phi ptr [ %34, %32 ], [ %36, %35 ]
  %40 = trunc i32 %.0 to i8
  %41 = getelementptr inbounds nuw i8, ptr %39, i64 1
  store ptr %41, ptr %33, align 8
  store i8 %40, ptr %39, align 1
  br label %.thread

.thread:                                          ; preds = %19, %25, %.loopexit, %38, %28
  %.032 = phi i32 [ %.0, %.loopexit ], [ %.0, %38 ], [ 10, %28 ], [ 0, %25 ], [ 0, %19 ]
  ret i32 %.032
}